; Function Attrs: nounwind sspstrong uwtable
define internal void @net_socket_send_dgram(ptr noundef %opaque) #0 {
entry:
  %fd = getelementptr inbounds nuw i8, ptr %opaque, i64 380
  %0 = load i32, ptr %fd, align 4
  %buf = getelementptr inbounds nuw i8, ptr %opaque, i64 404
  %call = tail call i64 @recv(i32 noundef %0, ptr noundef nonnull %buf, i64 noundef 69632, i32 noundef 0) #8
  %conv = trunc i64 %call to i32
  %cmp = icmp slt i32 %conv, 0
  br i1 %cmp, label %if.end13, label %if.end

if.end:                                           ; preds = %entry
  %cmp2 = icmp eq i32 %conv, 0
  br i1 %cmp2, label %if.then4, label %if.end5

if.then4:                                         ; preds = %if.end
  %read_poll.i = getelementptr inbounds nuw i8, ptr %opaque, i64 70080
  store i8 0, ptr %read_poll.i, align 8
  %1 = load i32, ptr %fd, align 4
  %write_poll.i.i = getelementptr inbounds nuw i8, ptr %opaque, i64 70081
  %2 = load i8, ptr %write_poll.i.i, align 1
  %tobool1.i.i = trunc i8 %2 to i1
  %cond2.i.i = select i1 %tobool1.i.i, ptr @net_socket_writable, ptr null
  tail call void @qemu_set_fd_handler(i32 noundef %1, ptr noundef null, ptr noundef %cond2.i.i, ptr noundef nonnull %opaque) #8
  store i8 0, ptr %write_poll.i.i, align 1
  %3 = load i32, ptr %fd, align 4
  %4 = load i8, ptr %read_poll.i, align 8
  %tobool.i.i = trunc i8 %4 to i1
  br i1 %tobool.i.i, label %cond.true.i.i, label %net_socket_write_poll.exit

cond.true.i.i:                                    ; preds = %if.then4
  %send_fn.i.i = getelementptr inbounds nuw i8, ptr %opaque, i64 70072
  %5 = load ptr, ptr %send_fn.i.i, align 8
  br label %net_socket_write_poll.exit

net_socket_write_poll.exit:                       ; preds = %if.then4, %cond.true.i.i
  %cond.i.i = phi ptr [ %5, %cond.true.i.i ], [ null, %if.then4 ]
  tail call void @qemu_set_fd_handler(i32 noundef %3, ptr noundef %cond.i.i, ptr noundef null, ptr noundef nonnull %opaque) #8
  br label %if.end13

if.end5:                                          ; preds = %if.end
  %call9 = tail call i64 @qemu_send_packet_async(ptr noundef nonnull %opaque, ptr noundef nonnull %buf, i32 noundef %conv, ptr noundef nonnull @net_socket_send_completed) #8
  %cmp10 = icmp eq i64 %call9, 0
  br i1 %cmp10, label %if.then12, label %if.end13

if.then12:                                        ; preds = %if.end5
  %read_poll.i10 = getelementptr inbounds nuw i8, ptr %opaque, i64 70080
  store i8 0, ptr %read_poll.i10, align 8
  %6 = load i32, ptr %fd, align 4
  %write_poll.i.i13 = getelementptr inbounds nuw i8, ptr %opaque, i64 70081
  %7 = load i8, ptr %write_poll.i.i13, align 1
  %tobool1.i.i14 = trunc i8 %7 to i1
  %cond2.i.i15 = select i1 %tobool1.i.i14, ptr @net_socket_writable, ptr null
  tail call void @qemu_set_fd_handler(i32 noundef %6, ptr noundef null, ptr noundef %cond2.i.i15, ptr noundef nonnull %opaque) #8
  br label %if.end13

if.end13:                                         ; preds = %entry, %if.then12, %if.end5, %net_socket_write_poll.exit
  ret void
}